target datalayout = "e-m:e-p270:32:32-p271:32:32-p272:64:64-i64:64-i128:128-f80:128-n8:16:32:64-S128"
target triple = "x86_64-pc-linux-gnu"

%struct.DTableDesc = type { i8, i8, i8, i8 }

; Function Attrs: nounwind uwtable
define internal i32 @HUFv07_getDTableDesc(ptr noundef %0) #0 {
  %2 = alloca %struct.DTableDesc, align 1
  %3 = alloca ptr, align 8
  store ptr %0, ptr %3, align 8, !tbaa !10
  %4 = load ptr, ptr %3, align 8, !tbaa !10
  call void @llvm.memcpy.p0.p0.i64(ptr align 1 %2, ptr align 4 %4, i64 4, i1 false)
  %5 = load i32, ptr %2, align 1
  ret i32 %5
}

; Function Attrs: nounwind uwtable
define i64 @HUFv07_decompress1X2_usingDTable(ptr noundef %0, i64 noundef %1, ptr noundef %2, i64 noundef %3, ptr noundef %4) #0 {
  %6 = alloca i64, align 8
  %7 = alloca ptr, align 8
  %8 = alloca i64, align 8
  %9 = alloca ptr, align 8
  %10 = alloca i64, align 8
  %11 = alloca ptr, align 8
  %12 = alloca %struct.DTableDesc, align 1
  %13 = alloca i32, align 4
  store ptr %0, ptr %7, align 8, !tbaa !12
  store i64 %1, ptr %8, align 8, !tbaa !3
  store ptr %2, ptr %9, align 8, !tbaa !12
  store i64 %3, ptr %10, align 8, !tbaa !3
  store ptr %4, ptr %11, align 8, !tbaa !10
  call void @llvm.lifetime.start.p0(i64 4, ptr %12) #11
  %14 = load ptr, ptr %11, align 8, !tbaa !10
  %15 = call i32 @HUFv07_getDTableDesc(ptr noundef %14)
  store i32 %15, ptr %12, align 1
  %16 = getelementptr inbounds nuw %struct.DTableDesc, ptr %12, i32 0, i32 1
  %17 = load i8, ptr %16, align 1, !tbaa !44
  %18 = zext i8 %17 to i32
  %19 = icmp ne i32 %18, 0
  br i1 %19, label %20, label %21

20:                                               ; preds = %5
  store i64 -1, ptr %6, align 8
  store i32 1, ptr %13, align 4
  br label %28

21:                                               ; preds = %5
  %22 = load ptr, ptr %7, align 8, !tbaa !12
  %23 = load i64, ptr %8, align 8, !tbaa !3
  %24 = load ptr, ptr %9, align 8, !tbaa !12
  %25 = load i64, ptr %10, align 8, !tbaa !3
  %26 = load ptr, ptr %11, align 8, !tbaa !10
  %27 = call i64 @HUFv07_decompress1X2_usingDTable_internal(ptr noundef %22, i64 noundef %23, ptr noundef %24, i64 noundef %25, ptr noundef %26)
  store i64 %27, ptr %6, align 8
  store i32 1, ptr %13, align 4
  br label %28

28:                                               ; preds = %21, %20
  call void @llvm.lifetime.end.p0(i64 4, ptr %12) #11
  %29 = load i64, ptr %6, align 8
  ret i64 %29
}